target datalayout = "e-m:e-p270:32:32-p271:32:32-p272:64:64-i64:64-i128:128-f80:128-n8:16:32:64-S128"
target triple = "x86_64-pc-linux-gnu"

%struct.commit_list = type { ptr, ptr }

; Function Attrs: nounwind uwtable
define dso_local ptr @reverse_commit_list(ptr noundef %0) #0 {
  %2 = alloca ptr, align 8
  %3 = alloca ptr, align 8
  %4 = alloca ptr, align 8
  %5 = alloca ptr, align 8
  store ptr %0, ptr %2, align 8, !tbaa !58
  call void @llvm.lifetime.start.p0(i64 8, ptr %3) #11
  store ptr null, ptr %3, align 8, !tbaa !58
  call void @llvm.lifetime.start.p0(i64 8, ptr %4) #11
  call void @llvm.lifetime.start.p0(i64 8, ptr %5) #11
  %6 = load ptr, ptr %2, align 8, !tbaa !58
  store ptr %6, ptr %4, align 8, !tbaa !58
  br label %7

7:                                                ; preds = %18, %1
  %8 = load ptr, ptr %4, align 8, !tbaa !58
  %9 = icmp ne ptr %8, null
  br i1 %9, label %10, label %20

10:                                               ; preds = %7
  %11 = load ptr, ptr %4, align 8, !tbaa !58
  %12 = getelementptr inbounds nuw %struct.commit_list, ptr %11, i32 0, i32 1
  %13 = load ptr, ptr %12, align 8, !tbaa !107
  store ptr %13, ptr %5, align 8, !tbaa !58
  %14 = load ptr, ptr %3, align 8, !tbaa !58
  %15 = load ptr, ptr %4, align 8, !tbaa !58
  %16 = getelementptr inbounds nuw %struct.commit_list, ptr %15, i32 0, i32 1
  store ptr %14, ptr %16, align 8, !tbaa !107
  %17 = load ptr, ptr %4, align 8, !tbaa !58
  store ptr %17, ptr %3, align 8, !tbaa !58
  br label %18

18:                                               ; preds = %10
  %19 = load ptr, ptr %5, align 8, !tbaa !58
  store ptr %19, ptr %4, align 8, !tbaa !58
  br label %7, !llvm.loop !126

20:                                               ; preds = %7
  %21 = load ptr, ptr %3, align 8, !tbaa !58
  call void @llvm.lifetime.end.p0(i64 8, ptr %5) #11
  call void @llvm.lifetime.end.p0(i64 8, ptr %4) #11
  call void @llvm.lifetime.end.p0(i64 8, ptr %3) #11
  ret ptr %21
}