; Function Attrs: nofree norecurse nosync nounwind memory(readwrite, inaccessiblemem: none) uwtable
define dso_local ptr @reverse_commit_list(ptr noundef %0) local_unnamed_addr #15 {
  %.not9 = icmp eq ptr %0, null
  br i1 %.not9, label %._crit_edge, label %.lr.ph

.lr.ph:                                           ; preds = %1, %.lr.ph
  %.011 = phi ptr [ %.0810, %.lr.ph ], [ null, %1 ]
  %.0810 = phi ptr [ %3, %.lr.ph ], [ %0, %1 ]
  %2 = getelementptr inbounds nuw i8, ptr %.0810, i64 8
  %3 = load ptr, ptr %2, align 8, !tbaa !48
  store ptr %.011, ptr %2, align 8, !tbaa !48
  %.not = icmp eq ptr %3, null
  br i1 %.not, label %._crit_edge, label %.lr.ph, !llvm.loop !108

._crit_edge:                                      ; preds = %.lr.ph, %1
  %.0.lcssa = phi ptr [ null, %1 ], [ %.0810, %.lr.ph ]
  ret ptr %.0.lcssa
}